target datalayout = "e-m:e-p270:32:32-p271:32:32-p272:64:64-i64:64-i128:128-f80:128-n8:16:32:64-S128"
target triple = "x86_64-pc-linux-gnu"

%class.XMMRegister = type { i32 }
%class.StubCodeGenerator = type { ptr, i8, ptr }

@_ZL6xnoreg = internal constant %class.XMMRegister { i32 -1 }, align 4

; Function Attrs: mustprogress nounwind uwtable
define linkonce_odr hidden void @_ZN11XMMRegisterC2Eib(ptr noundef nonnull align 4 dereferenceable(4) %0, i32 noundef %1, i1 noundef zeroext %2) unnamed_addr #1 comdat align 2 {
  %4 = alloca ptr, align 8
  %5 = alloca i32, align 4
  %6 = alloca i8, align 1
  store ptr %0, ptr %4, align 8
  store i32 %1, ptr %5, align 4
  %7 = zext i1 %2 to i8
  store i8 %7, ptr %6, align 1
  %8 = load ptr, ptr %4, align 8
  %9 = getelementptr inbounds %class.XMMRegister, ptr %8, i32 0, i32 0
  %10 = load i32, ptr %5, align 4
  store i32 %10, ptr %9, align 4
  ret void
}

; Function Attrs: mustprogress nounwind uwtable
define linkonce_odr hidden i32 @_Z14as_XMMRegisteri(i32 noundef %0) #1 comdat {
  %2 = alloca %class.XMMRegister, align 4
  %3 = alloca i32, align 4
  store i32 %0, ptr %3, align 4
  %4 = load i32, ptr %3, align 4
  %5 = icmp sle i32 0, %4
  br i1 %5, label %6, label %11

6:                                                ; preds = %1
  %7 = load i32, ptr %3, align 4
  %8 = icmp slt i32 %7, 32
  br i1 %8, label %9, label %11

9:                                                ; preds = %6
  %10 = load i32, ptr %3, align 4
  call void @_ZN11XMMRegisterC2Eib(ptr noundef nonnull align 4 dereferenceable(4) %2, i32 noundef %10, i1 noundef zeroext false)
  br label %12

11:                                               ; preds = %6, %1
  call void @llvm.memcpy.p0.p0.i64(ptr align 4 %2, ptr align 4 @_ZL6xnoreg, i64 4, i1 false)
  br label %12

12:                                               ; preds = %11, %9
  %13 = getelementptr inbounds %class.XMMRegister, ptr %2, i32 0, i32 0
  %14 = load i32, ptr %13, align 4
  ret i32 %14
}

; Function Attrs: mustprogress nounwind uwtable
define hidden void @_ZN13StubGenerator8roundDecE11XMMRegisteri(ptr noundef nonnull align 8 dereferenceable(24) %0, i32 %1, i32 noundef %2) #1 align 2 {
  %4 = alloca %class.XMMRegister, align 4
  %5 = alloca ptr, align 8
  %6 = alloca i32, align 4
  %7 = alloca i32, align 4
  %8 = alloca %class.XMMRegister, align 4
  %9 = alloca %class.XMMRegister, align 4
  %10 = alloca %class.XMMRegister, align 4
  %11 = getelementptr inbounds %class.XMMRegister, ptr %4, i32 0, i32 0
  store i32 %1, ptr %11, align 4
  store ptr %0, ptr %5, align 8
  store i32 %2, ptr %6, align 4
  %12 = load ptr, ptr %5, align 8
  store i32 0, ptr %7, align 4
  br label %13

13:                                               ; preds = %32, %3
  %14 = load i32, ptr %7, align 4
  %15 = load i32, ptr %6, align 4
  %16 = icmp sle i32 %14, %15
  br i1 %16, label %17, label %35

17:                                               ; preds = %13
  %18 = getelementptr inbounds %class.StubCodeGenerator, ptr %12, i32 0, i32 2
  %19 = load ptr, ptr %18, align 8
  %20 = load i32, ptr %7, align 4
  %21 = call i32 @_Z14as_XMMRegisteri(i32 noundef %20)
  %22 = getelementptr inbounds %class.XMMRegister, ptr %8, i32 0, i32 0
  store i32 %21, ptr %22, align 4
  %23 = load i32, ptr %7, align 4
  %24 = call i32 @_Z14as_XMMRegisteri(i32 noundef %23)
  %25 = getelementptr inbounds %class.XMMRegister, ptr %9, i32 0, i32 0
  store i32 %24, ptr %25, align 4
  call void @llvm.memcpy.p0.p0.i64(ptr align 4 %10, ptr align 4 %4, i64 4, i1 false)
  %26 = getelementptr inbounds %class.XMMRegister, ptr %8, i32 0, i32 0
  %27 = load i32, ptr %26, align 4
  %28 = getelementptr inbounds %class.XMMRegister, ptr %9, i32 0, i32 0
  %29 = load i32, ptr %28, align 4
  %30 = getelementptr inbounds %class.XMMRegister, ptr %10, i32 0, i32 0
  %31 = load i32, ptr %30, align 4
  call void @_ZN9Assembler7vaesdecE11XMMRegisterS0_S0_i(ptr noundef nonnull align 8 dereferenceable(40) %19, i32 %27, i32 %29, i32 %31, i32 noundef 2)
  br label %32

32:                                               ; preds = %17
  %33 = load i32, ptr %7, align 4
  %34 = add nsw i32 %33, 1
  store i32 %34, ptr %7, align 4
  br label %13, !llvm.loop !23

35:                                               ; preds = %13
  ret void
}