; Function Attrs: mustprogress nounwind uwtable
define hidden void @_ZN13StubGenerator8roundDecE11XMMRegisteri(ptr nocapture noundef nonnull readonly align 8 dereferenceable(24) %0, i32 %1, i32 noundef %2) local_unnamed_addr #0 align 2 {
  %.not10 = icmp slt i32 %2, 0
  br i1 %.not10, label %._crit_edge, label %.lr.ph

.lr.ph:                                           ; preds = %3
  %4 = getelementptr inbounds i8, ptr %0, i64 16
  br label %5

5:                                                ; preds = %.lr.ph, %5
  %.011 = phi i32 [ 0, %.lr.ph ], [ %7, %5 ]
  %6 = load ptr, ptr %4, align 8
  %or.cond.i = icmp ult i32 %.011, 32
  %spec.select.i = select i1 %or.cond.i, i32 %.011, i32 -1
  tail call void @_ZN9Assembler7vaesdecE11XMMRegisterS0_S0_i(ptr noundef nonnull align 8 dereferenceable(40) %6, i32 %spec.select.i, i32 %spec.select.i, i32 %1, i32 noundef 2) #7
  %7 = add nuw i32 %.011, 1
  %exitcond.not = icmp eq i32 %.011, %2
  br i1 %exitcond.not, label %._crit_edge, label %5, !llvm.loop !22

._crit_edge:                                      ; preds = %5, %3
  ret void
}